; Function Attrs: nounwind uwtable
define zeroext range(i8 0, 2) i8 @l_String_anyAux___at_Lake_Toml_DateTime_ofString_x3f___spec__3(ptr noundef %0, ptr noundef %1, ptr noundef %2) local_unnamed_addr #0 {
  %4 = ptrtoint ptr %1 to i64
  %5 = and i64 %4, 1
  %.not37 = icmp eq i64 %5, 0
  br i1 %.not37, label %.split.us, label %.split, !prof !13

.split.us:                                        ; preds = %3, %.split.us.backedge
  %.017.us = phi ptr [ %12, %.split.us.backedge ], [ %2, %3 ]
  %6 = ptrtoint ptr %.017.us to i64
  %7 = and i64 %6, 1
  %.not.us = icmp eq i64 %7, 0
  %8 = tail call zeroext i1 @lean_nat_big_lt(ptr noundef %.017.us, ptr noundef %1) #4
  br i1 %.not.us, label %lean_nat_lt.exit.thread35.us, label %lean_nat_lt.exit.us, !prof !13

lean_nat_lt.exit.us:                              ; preds = %.split.us
  br i1 %8, label %9, label %.thread

lean_nat_lt.exit.thread35.us:                     ; preds = %.split.us
  br i1 %8, label %9, label %.split45.us

9:                                                ; preds = %lean_nat_lt.exit.thread35.us, %lean_nat_lt.exit.us
  %10 = tail call i32 @lean_string_utf8_get(ptr noundef %0, ptr noundef %.017.us) #4
  %.not39.us = icmp eq i32 %10, 58
  br i1 %.not39.us, label %.split47.us, label %11

11:                                               ; preds = %9
  %12 = tail call ptr @lean_string_utf8_next(ptr noundef %0, ptr noundef %.017.us) #4
  br i1 %.not.us, label %13, label %.split.us.backedge

13:                                               ; preds = %11
  %14 = load i32, ptr %.017.us, align 4, !tbaa !9
  %15 = icmp sgt i32 %14, 1
  br i1 %15, label %18, label %16, !prof !12

16:                                               ; preds = %13
  %.not.i24.us = icmp eq i32 %14, 0
  br i1 %.not.i24.us, label %.split.us.backedge, label %17

17:                                               ; preds = %16
  tail call void @lean_dec_ref_cold(ptr noundef nonnull %.017.us) #4
  br label %.split.us.backedge

18:                                               ; preds = %13
  %19 = add nsw i32 %14, -1
  store i32 %19, ptr %.017.us, align 4, !tbaa !9
  br label %.split.us.backedge

.split.us.backedge:                               ; preds = %18, %17, %16, %11
  br label %.split.us

.split:                                           ; preds = %3, %.split.backedge
  %.017 = phi ptr [ %32, %.split.backedge ], [ %2, %3 ]
  %20 = ptrtoint ptr %.017 to i64
  %21 = and i64 %20, 1
  %.not = icmp eq i64 %21, 0
  br i1 %.not, label %lean_nat_lt.exit.thread35, label %lean_nat_lt.exit.thread, !prof !13

lean_nat_lt.exit.thread:                          ; preds = %.split
  %.not38 = icmp ult ptr %.017, %1
  br i1 %.not38, label %29, label %.thread

lean_nat_lt.exit.thread35:                        ; preds = %.split
  %22 = tail call zeroext i1 @lean_nat_big_lt(ptr noundef %.017, ptr noundef %1) #4
  br i1 %22, label %29, label %.split45.us

.split45.us:                                      ; preds = %lean_nat_lt.exit.thread35, %lean_nat_lt.exit.thread35.us
  %.us-phi = phi ptr [ %.017.us, %lean_nat_lt.exit.thread35.us ], [ %.017, %lean_nat_lt.exit.thread35 ]
  %23 = load i32, ptr %.us-phi, align 4, !tbaa !9
  %24 = icmp sgt i32 %23, 1
  br i1 %24, label %25, label %27, !prof !12

25:                                               ; preds = %.split45.us
  %26 = add nsw i32 %23, -1
  store i32 %26, ptr %.us-phi, align 4, !tbaa !9
  br label %.thread

27:                                               ; preds = %.split45.us
  %.not.i = icmp eq i32 %23, 0
  br i1 %.not.i, label %.thread, label %28

28:                                               ; preds = %27
  tail call void @lean_dec_ref_cold(ptr noundef nonnull %.us-phi) #4
  br label %.thread

29:                                               ; preds = %lean_nat_lt.exit.thread35, %lean_nat_lt.exit.thread
  %30 = tail call i32 @lean_string_utf8_get(ptr noundef %0, ptr noundef %.017) #4
  %.not39 = icmp eq i32 %30, 58
  br i1 %.not39, label %.split47.us, label %31

31:                                               ; preds = %29
  %32 = tail call ptr @lean_string_utf8_next(ptr noundef %0, ptr noundef %.017) #4
  br i1 %.not, label %33, label %.split.backedge

.split.backedge:                                  ; preds = %31, %36, %38, %39
  br label %.split

33:                                               ; preds = %31
  %34 = load i32, ptr %.017, align 4, !tbaa !9
  %35 = icmp sgt i32 %34, 1
  br i1 %35, label %36, label %38, !prof !12

36:                                               ; preds = %33
  %37 = add nsw i32 %34, -1
  store i32 %37, ptr %.017, align 4, !tbaa !9
  br label %.split.backedge

38:                                               ; preds = %33
  %.not.i24 = icmp eq i32 %34, 0
  br i1 %.not.i24, label %.split.backedge, label %39

39:                                               ; preds = %38
  tail call void @lean_dec_ref_cold(ptr noundef nonnull %.017) #4
  br label %.split.backedge

.split47.us:                                      ; preds = %29, %9
  %.us-phi48 = phi ptr [ %.017.us, %9 ], [ %.017, %29 ]
  %.us-phi49 = phi i1 [ %.not.us, %9 ], [ %.not, %29 ]
  br i1 %.us-phi49, label %40, label %.thread

40:                                               ; preds = %.split47.us
  %41 = load i32, ptr %.us-phi48, align 4, !tbaa !9
  %42 = icmp sgt i32 %41, 1
  br i1 %42, label %43, label %45, !prof !12

43:                                               ; preds = %40
  %44 = add nsw i32 %41, -1
  store i32 %44, ptr %.us-phi48, align 4, !tbaa !9
  br label %.thread

45:                                               ; preds = %40
  %.not.i26 = icmp eq i32 %41, 0
  br i1 %.not.i26, label %.thread, label %46

46:                                               ; preds = %45
  tail call void @lean_dec_ref_cold(ptr noundef nonnull %.us-phi48) #4
  br label %.thread

.thread:                                          ; preds = %lean_nat_lt.exit.thread, %lean_nat_lt.exit.us, %28, %27, %25, %46, %45, %43, %.split47.us
  %.1.ph = phi i8 [ 1, %.split47.us ], [ 1, %43 ], [ 1, %45 ], [ 1, %46 ], [ 0, %25 ], [ 0, %27 ], [ 0, %28 ], [ 0, %lean_nat_lt.exit.us ], [ 0, %lean_nat_lt.exit.thread ]
  ret i8 %.1.ph
}